target datalayout = "e-m:e-p270:32:32-p271:32:32-p272:64:64-i64:64-i128:128-f80:128-n8:16:32:64-S128"
target triple = "x86_64-pc-linux-gnu"

%struct._lv_vector_draw_dsc_t = type { %struct._lv_vector_fill_dsc_t, %struct._lv_vector_stroke_dsc_t, %struct._lv_matrix_t, i32, %struct.lv_area_t }
%struct._lv_vector_fill_dsc_t = type { i32, %struct.lv_color32_t, i8, i32, %struct._lv_draw_image_dsc_t, %struct._lv_vector_gradient_t, %struct._lv_matrix_t }
%struct.lv_color32_t = type { i8, i8, i8, i8 }
%struct._lv_draw_image_dsc_t = type { %struct.lv_draw_dsc_base_t, ptr, %struct.lv_image_header_t, i32, i32, i32, i32, i32, %struct.lv_point_t, %struct.lv_color_t, i8, i8, i8, ptr, %struct.lv_area_t, i32, ptr }
%struct.lv_draw_dsc_base_t = type { ptr, i32, i32, i32, ptr, i64, ptr }
%struct.lv_image_header_t = type <{ i64, i32 }>
%struct.lv_point_t = type { i32, i32 }
%struct.lv_color_t = type { i8, i8, i8 }
%struct._lv_vector_gradient_t = type { i32, [2 x %struct.lv_gradient_stop_t], i16, float, float, float, float, float, float, float, i32 }
%struct.lv_gradient_stop_t = type { %struct.lv_color_t, i8, i8 }
%struct._lv_vector_stroke_dsc_t = type { i32, %struct.lv_color32_t, i8, float, %struct._lv_array_t, i32, i32, i16, %struct._lv_vector_gradient_t, %struct._lv_matrix_t }
%struct._lv_array_t = type { ptr, i32, i32, i32, i8 }
%struct._lv_matrix_t = type { [3 x [3 x float]] }
%struct.lv_area_t = type { i32, i32, i32, i32 }
%struct._lv_svg_render_obj = type { ptr, i32, ptr, %struct._lv_vector_draw_dsc_t, %struct._lv_matrix_t, ptr, ptr, ptr, ptr, ptr, ptr, ptr, ptr, ptr }
%struct.lv_svg_render_ellipse_t = type { %struct._lv_svg_render_obj, float, float, float, float }

; Function Attrs: nounwind uwtable
define internal void @_get_ellipse_bounds(ptr noundef %0, ptr noundef %1) #0 {
  %3 = alloca ptr, align 8
  %4 = alloca ptr, align 8
  %5 = alloca ptr, align 8
  store ptr %0, ptr %3, align 8, !tbaa !3
  store ptr %1, ptr %4, align 8, !tbaa !3
  call void @llvm.lifetime.start.p0(i64 8, ptr %5) #8
  %6 = load ptr, ptr %3, align 8, !tbaa !3
  store ptr %6, ptr %5, align 8, !tbaa !3
  %7 = load ptr, ptr %5, align 8, !tbaa !3
  %8 = getelementptr inbounds nuw %struct.lv_svg_render_ellipse_t, ptr %7, i32 0, i32 1
  %9 = load float, ptr %8, align 8, !tbaa !176
  %10 = load ptr, ptr %5, align 8, !tbaa !3
  %11 = getelementptr inbounds nuw %struct.lv_svg_render_ellipse_t, ptr %10, i32 0, i32 3
  %12 = load float, ptr %11, align 8, !tbaa !178
  %13 = fsub float %9, %12
  %14 = fptosi float %13 to i32
  %15 = load ptr, ptr %4, align 8, !tbaa !3
  %16 = getelementptr inbounds nuw %struct.lv_area_t, ptr %15, i32 0, i32 0
  store i32 %14, ptr %16, align 4, !tbaa !148
  %17 = load ptr, ptr %5, align 8, !tbaa !3
  %18 = getelementptr inbounds nuw %struct.lv_svg_render_ellipse_t, ptr %17, i32 0, i32 2
  %19 = load float, ptr %18, align 4, !tbaa !177
  %20 = load ptr, ptr %5, align 8, !tbaa !3
  %21 = getelementptr inbounds nuw %struct.lv_svg_render_ellipse_t, ptr %20, i32 0, i32 4
  %22 = load float, ptr %21, align 4, !tbaa !179
  %23 = fsub float %19, %22
  %24 = fptosi float %23 to i32
  %25 = load ptr, ptr %4, align 8, !tbaa !3
  %26 = getelementptr inbounds nuw %struct.lv_area_t, ptr %25, i32 0, i32 1
  store i32 %24, ptr %26, align 4, !tbaa !149
  %27 = load ptr, ptr %5, align 8, !tbaa !3
  %28 = getelementptr inbounds nuw %struct.lv_svg_render_ellipse_t, ptr %27, i32 0, i32 1
  %29 = load float, ptr %28, align 8, !tbaa !176
  %30 = load ptr, ptr %5, align 8, !tbaa !3
  %31 = getelementptr inbounds nuw %struct.lv_svg_render_ellipse_t, ptr %30, i32 0, i32 3
  %32 = load float, ptr %31, align 8, !tbaa !178
  %33 = fadd float %29, %32
  %34 = fptosi float %33 to i32
  %35 = load ptr, ptr %4, align 8, !tbaa !3
  %36 = getelementptr inbounds nuw %struct.lv_area_t, ptr %35, i32 0, i32 2
  store i32 %34, ptr %36, align 4, !tbaa !151
  %37 = load ptr, ptr %5, align 8, !tbaa !3
  %38 = getelementptr inbounds nuw %struct.lv_svg_render_ellipse_t, ptr %37, i32 0, i32 2
  %39 = load float, ptr %38, align 4, !tbaa !177
  %40 = load ptr, ptr %5, align 8, !tbaa !3
  %41 = getelementptr inbounds nuw %struct.lv_svg_render_ellipse_t, ptr %40, i32 0, i32 4
  %42 = load float, ptr %41, align 4, !tbaa !179
  %43 = fadd float %39, %42
  %44 = fptosi float %43 to i32
  %45 = load ptr, ptr %4, align 8, !tbaa !3
  %46 = getelementptr inbounds nuw %struct.lv_area_t, ptr %45, i32 0, i32 3
  store i32 %44, ptr %46, align 4, !tbaa !153
  call void @llvm.lifetime.end.p0(i64 8, ptr %5) #8
  ret void
}