; Function Attrs: mustprogress nofree norecurse nosync nounwind willreturn memory(argmem: readwrite) uwtable
define internal void @_get_ellipse_bounds(ptr nocapture noundef readonly %0, ptr nocapture noundef writeonly %1) #5 {
  %3 = getelementptr inbounds nuw i8, ptr %0, i64 576
  %4 = load float, ptr %3, align 8, !tbaa !182
  %5 = getelementptr inbounds nuw i8, ptr %0, i64 584
  %6 = load float, ptr %5, align 8, !tbaa !184
  %7 = fsub float %4, %6
  %8 = fptosi float %7 to i32
  store i32 %8, ptr %1, align 4, !tbaa !157
  %9 = getelementptr inbounds nuw i8, ptr %0, i64 580
  %10 = load float, ptr %9, align 4, !tbaa !183
  %11 = getelementptr inbounds nuw i8, ptr %0, i64 588
  %12 = load float, ptr %11, align 4, !tbaa !185
  %13 = fsub float %10, %12
  %14 = fptosi float %13 to i32
  %15 = getelementptr inbounds nuw i8, ptr %1, i64 4
  store i32 %14, ptr %15, align 4, !tbaa !158
  %16 = fadd float %4, %6
  %17 = fptosi float %16 to i32
  %18 = getelementptr inbounds nuw i8, ptr %1, i64 8
  store i32 %17, ptr %18, align 4, !tbaa !160
  %19 = fadd float %10, %12
  %20 = fptosi float %19 to i32
  %21 = getelementptr inbounds nuw i8, ptr %1, i64 12
  store i32 %20, ptr %21, align 4, !tbaa !162
  ret void
}